; Function Attrs: mustprogress uwtable
define dso_local noundef nonnull align 8 dereferenceable(704) ptr @_ZN13cmSourceGroupaSERKS_(ptr noundef nonnull returned align 8 dereferenceable(704) %0, ptr noundef nonnull align 8 dereferenceable(704) %1) local_unnamed_addr #0 align 2 {
  tail call void @_ZNSt7__cxx1112basic_stringIcSt11char_traitsIcESaIcEE9_M_assignERKS4_(ptr noundef nonnull align 8 dereferenceable(32) %0, ptr noundef nonnull align 8 dereferenceable(32) %1)
  %3 = getelementptr inbounds nuw i8, ptr %1, i64 64
  %4 = getelementptr inbounds nuw i8, ptr %0, i64 64
  %5 = tail call noundef nonnull align 8 dereferenceable(560) ptr @_ZN5cmsys17RegularExpressionaSERKS0_(ptr noundef nonnull align 8 dereferenceable(560) %4, ptr noundef nonnull align 8 dereferenceable(560) %3)
  %6 = getelementptr inbounds nuw i8, ptr %1, i64 624
  %7 = getelementptr inbounds nuw i8, ptr %0, i64 624
  %8 = tail call noundef nonnull align 8 dereferenceable(48) ptr @_ZNSt8_Rb_treeINSt7__cxx1112basic_stringIcSt11char_traitsIcESaIcEEES5_St9_IdentityIS5_ESt4lessIS5_ESaIS5_EEaSERKSB_(ptr noundef nonnull align 8 dereferenceable(48) %7, ptr noundef nonnull align 8 dereferenceable(48) %6)
  %9 = getelementptr inbounds nuw i8, ptr %1, i64 672
  %10 = getelementptr inbounds nuw i8, ptr %0, i64 672
  %11 = tail call noundef nonnull align 8 dereferenceable(24) ptr @_ZNSt6vectorIPK12cmSourceFileSaIS2_EEaSERKS4_(ptr noundef nonnull align 8 dereferenceable(24) %10, ptr noundef nonnull align 8 dereferenceable(24) %9)
  %12 = getelementptr inbounds nuw i8, ptr %1, i64 696
  %13 = load ptr, ptr %12, align 8, !tbaa !30
  %14 = getelementptr inbounds nuw i8, ptr %0, i64 696
  %15 = load ptr, ptr %14, align 8, !tbaa !30
  %16 = tail call noundef nonnull align 8 dereferenceable(24) ptr @_ZNSt6vectorI13cmSourceGroupSaIS0_EEaSERKS2_(ptr noundef nonnull align 8 dereferenceable(24) %15, ptr noundef nonnull align 8 dereferenceable(24) %13)
  ret ptr %0
}